; Function Attrs: mustprogress uwtable
define hidden void @_ZN4lean8mk_axiomERKNS_4nameERKNS_8list_refIS0_EERKNS_4exprEb(ptr dead_on_unwind noalias writable writeonly sret(%"class.lean::declaration") align 8 captures(none) %0, ptr noundef nonnull readonly align 8 captures(none) dereferenceable(8) %1, ptr noundef nonnull readonly align 8 captures(none) dereferenceable(8) %2, ptr noundef nonnull readonly align 8 captures(none) dereferenceable(8) %3, i1 noundef zeroext %4) local_unnamed_addr #0 personality ptr @__gxx_personality_v0 {
  %6 = alloca %"class.lean::axiom_val", align 8
  call void @llvm.lifetime.start.p0(i64 8, ptr nonnull %6) #16
  call void @_ZN4lean9axiom_valC2ERKNS_4nameERKNS_8list_refIS1_EERKNS_4exprEb(ptr noundef nonnull align 8 dereferenceable(8) %6, ptr noundef nonnull align 8 dereferenceable(8) %1, ptr noundef nonnull align 8 dereferenceable(8) %2, ptr noundef nonnull align 8 dereferenceable(8) %3, i1 noundef zeroext %4)
  invoke void @lean_inc_heartbeat()
          to label %.noexc unwind label %34

.noexc:                                           ; preds = %5
  %7 = tail call noalias ptr @mi_malloc_small(i64 noundef 16) #16, !noalias !70
  %8 = icmp eq ptr %7, null
  br i1 %8, label %9, label %_ZL23lean_alloc_small_objectj.exit.i.i.i.i

9:                                                ; preds = %.noexc
  invoke void @lean_internal_panic_out_of_memory() #17
          to label %.noexc7 unwind label %34

.noexc7:                                          ; preds = %9
  unreachable

_ZL23lean_alloc_small_objectj.exit.i.i.i.i:       ; preds = %.noexc
  %10 = getelementptr inbounds nuw i8, ptr %7, i64 4
  store i32 1, ptr %7, align 4, !tbaa !8, !noalias !70
  store i32 65552, ptr %10, align 4, !noalias !70
  %11 = load ptr, ptr %6, align 8, !tbaa !3, !noalias !70
  %12 = ptrtoint ptr %11 to i64
  %13 = and i64 %12, 1
  %.not.i.i.i = icmp eq i64 %13, 0
  br i1 %.not.i.i.i, label %14, label %.noexc8

14:                                               ; preds = %_ZL23lean_alloc_small_objectj.exit.i.i.i.i
  %.val.i.i.i.i = load i32, ptr %11, align 4, !tbaa !8, !noalias !70
  %15 = icmp sgt i32 %.val.i.i.i.i, 0
  br i1 %15, label %16, label %18, !prof !11

16:                                               ; preds = %14
  %17 = add nuw nsw i32 %.val.i.i.i.i, 1
  store i32 %17, ptr %11, align 4, !tbaa !8, !noalias !70
  br label %.noexc8

18:                                               ; preds = %14
  %.not.i.i.i.i = icmp eq i32 %.val.i.i.i.i, 0
  br i1 %.not.i.i.i.i, label %.noexc8, label %19

19:                                               ; preds = %18
  invoke void @lean_inc_ref_cold(ptr noundef nonnull %11)
          to label %.noexc8 unwind label %34

.noexc8:                                          ; preds = %19, %18, %16, %_ZL23lean_alloc_small_objectj.exit.i.i.i.i
  %20 = getelementptr inbounds nuw i8, ptr %7, i64 8
  store ptr %11, ptr %20, align 8, !tbaa !22, !noalias !70
  store ptr %7, ptr %0, align 8, !tbaa !3
  %21 = ptrtoint ptr %7 to i64
  %22 = and i64 %21, 1
  %.not.i.i.i9 = icmp eq i64 %22, 0
  br i1 %.not.i.i.i9, label %23, label %_ZN4lean10object_refD2Ev.exit

23:                                               ; preds = %.noexc8
  store i32 1, ptr %7, align 4, !tbaa !8
  br label %_ZN4lean10object_refD2Ev.exit

_ZN4lean10object_refD2Ev.exit:                    ; preds = %.noexc8, %23
  br i1 %.not.i.i.i, label %24, label %_ZN4lean10object_refD2Ev.exit16

24:                                               ; preds = %_ZN4lean10object_refD2Ev.exit
  %25 = load i32, ptr %11, align 4, !tbaa !8
  %26 = icmp sgt i32 %25, 1
  br i1 %26, label %27, label %29, !prof !11

27:                                               ; preds = %24
  %28 = add nsw i32 %25, -1
  store i32 %28, ptr %11, align 4, !tbaa !8
  br label %_ZN4lean10object_refD2Ev.exit16

29:                                               ; preds = %24
  %.not.i.i.i15 = icmp eq i32 %25, 0
  br i1 %.not.i.i.i15, label %_ZN4lean10object_refD2Ev.exit16, label %30

30:                                               ; preds = %29
  invoke void @lean_dec_ref_cold(ptr noundef nonnull %11)
          to label %_ZN4lean10object_refD2Ev.exit16 unwind label %31

31:                                               ; preds = %30
  %32 = landingpad { ptr, i32 }
          catch ptr null
  %33 = extractvalue { ptr, i32 } %32, 0
  tail call void @__clang_call_terminate(ptr %33) #18
  unreachable

_ZN4lean10object_refD2Ev.exit16:                  ; preds = %_ZN4lean10object_refD2Ev.exit, %27, %29, %30
  call void @llvm.lifetime.end.p0(i64 8, ptr nonnull %6) #16
  ret void

34:                                               ; preds = %5, %9, %19
  %35 = landingpad { ptr, i32 }
          cleanup
  call void @_ZN4lean10object_refD2Ev(ptr noundef nonnull align 8 dereferenceable(8) %6) #16
  call void @llvm.lifetime.end.p0(i64 8, ptr nonnull %6) #16
  resume { ptr, i32 } %35
}